; Function Attrs: nounwind uwtable
define internal fastcc range(i32 -22, 1) i32 @parse_http_date(ptr noundef readonly captures(none) %0, ptr noundef nonnull %1) unnamed_addr #2 {
  %3 = alloca [19 x i8], align 16
  call void @llvm.lifetime.start.p0(i64 19, ptr nonnull %3) #15
  %4 = load i8, ptr %0, align 1, !tbaa !44
  %.not42 = icmp eq i8 %4, 0
  br i1 %.not42, label %._crit_edge, label %.lr.ph

.lr.ph:                                           ; preds = %2, %14
  %indvars.iv = phi i64 [ %indvars.iv.next, %14 ], [ 0, %2 ]
  %5 = phi i8 [ %16, %14 ], [ %4, %2 ]
  %.02840 = phi i32 [ %.1, %14 ], [ 0, %2 ]
  %6 = add i8 %5, -48
  %or.cond = icmp ult i8 %6, 10
  %7 = and i8 %5, -33
  %8 = add i8 %7, -65
  %9 = icmp ult i8 %8, 26
  %or.cond39 = or i1 %or.cond, %9
  br i1 %or.cond39, label %10, label %14

10:                                               ; preds = %.lr.ph
  %11 = sext i32 %.02840 to i64
  %12 = getelementptr inbounds [19 x i8], ptr %3, i64 0, i64 %11
  store i8 %5, ptr %12, align 1, !tbaa !44
  %13 = add nsw i32 %.02840, 1
  br label %14

14:                                               ; preds = %.lr.ph, %10
  %.1 = phi i32 [ %13, %10 ], [ %.02840, %.lr.ph ]
  %indvars.iv.next = add nuw nsw i64 %indvars.iv, 1
  %15 = getelementptr inbounds nuw i8, ptr %0, i64 %indvars.iv.next
  %16 = load i8, ptr %15, align 1, !tbaa !44
  %17 = icmp ne i8 %16, 0
  %18 = icmp slt i32 %.1, 18
  %19 = select i1 %17, i1 %18, i1 false
  br i1 %19, label %.lr.ph, label %._crit_edge.loopexit, !llvm.loop !64

._crit_edge.loopexit:                             ; preds = %14
  %20 = sext i32 %.1 to i64
  br label %._crit_edge

._crit_edge:                                      ; preds = %._crit_edge.loopexit, %2
  %.028.lcssa = phi i64 [ 0, %2 ], [ %20, %._crit_edge.loopexit ]
  %21 = getelementptr inbounds [19 x i8], ptr %3, i64 0, i64 %.028.lcssa
  store i8 0, ptr %21, align 1, !tbaa !44
  br label %22

22:                                               ; preds = %22, %._crit_edge
  %.0 = phi ptr [ %3, %._crit_edge ], [ %25, %22 ]
  %23 = load i8, ptr %.0, align 1, !tbaa !44
  %24 = add i8 %23, -48
  %or.cond36 = icmp ult i8 %24, 10
  %.not = icmp eq i8 %23, 0
  %or.cond37 = or i1 %.not, %or.cond36
  %25 = getelementptr inbounds nuw i8, ptr %.0, i64 1
  br i1 %or.cond37, label %.critedge, label %22, !llvm.loop !65

.critedge:                                        ; preds = %22
  %26 = call ptr @av_small_strptime(ptr noundef nonnull %.0, ptr noundef nonnull @.str.63, ptr noundef nonnull %1) #15
  %.not33 = icmp eq ptr %26, null
  %27 = select i1 %.not33, i32 -22, i32 0
  call void @llvm.lifetime.end.p0(i64 19, ptr nonnull %3) #15
  ret i32 %27
}